target datalayout = "e-m:e-p270:32:32-p271:32:32-p272:64:64-i64:64-i128:128-f80:128-n8:16:32:64-S128"
target triple = "x86_64-pc-linux-gnu"

%struct._zend_refcounted_h = type { i32, %union.anon }
%union.anon = type { i32 }
%struct.url_adapt_state_ex_t = type { %struct.smart_str, %struct.smart_str, %struct.smart_str, %struct.smart_str, %struct.smart_str, %struct.smart_str, %struct.smart_str, i32, ptr, i32, i32, %struct.smart_str, i32, i32, ptr }
%struct.smart_str = type { ptr, i64 }
%struct._zend_string = type { %struct._zend_refcounted_h, i64, i64, [1 x i8] }

; Function Attrs: nounwind uwtable
define internal void @passthru(ptr noundef %0, ptr noundef %1, ptr noundef %2) #0 {
  %4 = alloca ptr, align 8
  %5 = alloca i64, align 8
  %6 = alloca i8, align 1
  %7 = alloca ptr, align 8
  %8 = alloca ptr, align 8
  %9 = alloca i64, align 8
  %10 = alloca i8, align 1
  %11 = alloca i64, align 8
  %12 = alloca ptr, align 8
  %13 = alloca ptr, align 8
  %14 = alloca i64, align 8
  %15 = alloca ptr, align 8
  %16 = alloca ptr, align 8
  %17 = alloca ptr, align 8
  store ptr %0, ptr %15, align 8
  store ptr %1, ptr %16, align 8
  store ptr %2, ptr %17, align 8
  %18 = load ptr, ptr %15, align 8
  %19 = getelementptr inbounds %struct.url_adapt_state_ex_t, ptr %18, i32 0, i32 4
  %20 = load ptr, ptr %16, align 8
  %21 = load ptr, ptr %17, align 8
  %22 = load ptr, ptr %16, align 8
  %23 = ptrtoint ptr %21 to i64
  %24 = ptrtoint ptr %22 to i64
  %25 = sub i64 %23, %24
  store ptr %19, ptr %12, align 8
  store ptr %20, ptr %13, align 8
  store i64 %25, ptr %14, align 8
  %26 = load ptr, ptr %12, align 8
  %27 = load ptr, ptr %13, align 8
  %28 = load i64, ptr %14, align 8
  store ptr %26, ptr %7, align 8
  store ptr %27, ptr %8, align 8
  store i64 %28, ptr %9, align 8
  store i8 0, ptr %10, align 1
  %29 = load ptr, ptr %7, align 8
  %30 = load i64, ptr %9, align 8
  %31 = load i8, ptr %10, align 1
  %32 = trunc i8 %31 to i1
  store ptr %29, ptr %4, align 8
  store i64 %30, ptr %5, align 8
  %33 = zext i1 %32 to i8
  store i8 %33, ptr %6, align 1
  %34 = load ptr, ptr %4, align 8
  %35 = load ptr, ptr %34, align 8
  %36 = icmp ne ptr %35, null
  %37 = xor i1 %36, true
  br i1 %37, label %38, label %39

38:                                               ; preds = %3
  br label %52

39:                                               ; preds = %3
  %40 = load ptr, ptr %4, align 8
  %41 = load ptr, ptr %40, align 8
  %42 = getelementptr inbounds %struct._zend_string, ptr %41, i32 0, i32 2
  %43 = load i64, ptr %42, align 8
  %44 = load i64, ptr %5, align 8
  %45 = add i64 %44, %43
  store i64 %45, ptr %5, align 8
  %46 = load i64, ptr %5, align 8
  %47 = load ptr, ptr %4, align 8
  %48 = getelementptr inbounds %struct.smart_str, ptr %47, i32 0, i32 1
  %49 = load i64, ptr %48, align 8
  %50 = icmp uge i64 %46, %49
  br i1 %50, label %51, label %62

51:                                               ; preds = %39
  br label %52

52:                                               ; preds = %51, %38
  %53 = load i8, ptr %6, align 1
  %54 = trunc i8 %53 to i1
  br i1 %54, label %55, label %58

55:                                               ; preds = %52
  %56 = load ptr, ptr %4, align 8
  %57 = load i64, ptr %5, align 8
  call void @smart_str_realloc(ptr noundef %56, i64 noundef %57) #10
  br label %61

58:                                               ; preds = %52
  %59 = load ptr, ptr %4, align 8
  %60 = load i64, ptr %5, align 8
  call void @smart_str_erealloc(ptr noundef %59, i64 noundef %60) #10
  br label %61

61:                                               ; preds = %58, %55
  br label %62

62:                                               ; preds = %61, %39
  %63 = load i64, ptr %5, align 8
  store i64 %63, ptr %11, align 8
  %64 = load ptr, ptr %7, align 8
  %65 = load ptr, ptr %64, align 8
  %66 = getelementptr inbounds %struct._zend_string, ptr %65, i32 0, i32 3
  %67 = load ptr, ptr %7, align 8
  %68 = load ptr, ptr %67, align 8
  %69 = getelementptr inbounds %struct._zend_string, ptr %68, i32 0, i32 2
  %70 = load i64, ptr %69, align 8
  %71 = getelementptr inbounds i8, ptr %66, i64 %70
  %72 = load ptr, ptr %8, align 8
  %73 = load i64, ptr %9, align 8
  call void @llvm.memcpy.p0.p0.i64(ptr align 1 %71, ptr align 1 %72, i64 %73, i1 false)
  %74 = load i64, ptr %11, align 8
  %75 = load ptr, ptr %7, align 8
  %76 = load ptr, ptr %75, align 8
  %77 = getelementptr inbounds %struct._zend_string, ptr %76, i32 0, i32 2
  store i64 %74, ptr %77, align 8
  ret void
}