; Function Attrs: nounwind uwtable
define internal fastcc void @passthru(ptr noundef %0, ptr noundef %1, ptr noundef %2) unnamed_addr #0 {
  %4 = getelementptr inbounds i8, ptr %0, i64 64
  %5 = ptrtoint ptr %2 to i64
  %6 = ptrtoint ptr %1 to i64
  %7 = sub i64 %5, %6
  %8 = load ptr, ptr %4, align 8
  %.not = icmp eq ptr %8, null
  br i1 %.not, label %15, label %9

9:                                                ; preds = %3
  %10 = getelementptr inbounds i8, ptr %8, i64 16
  %11 = load i64, ptr %10, align 8
  %12 = add i64 %11, %7
  %13 = getelementptr inbounds i8, ptr %0, i64 72
  %14 = load i64, ptr %13, align 8
  %.not28 = icmp ult i64 %12, %14
  br i1 %.not28, label %16, label %15

15:                                               ; preds = %3, %9
  %.0 = phi i64 [ %7, %3 ], [ %12, %9 ]
  tail call void @smart_str_erealloc(ptr noundef nonnull %4, i64 noundef %.0) #16
  %.pre = load ptr, ptr %4, align 8
  %.phi.trans.insert = getelementptr inbounds i8, ptr %.pre, i64 16
  %.pre29 = load i64, ptr %.phi.trans.insert, align 8
  br label %16

16:                                               ; preds = %15, %9
  %17 = phi i64 [ %.pre29, %15 ], [ %11, %9 ]
  %18 = phi ptr [ %.pre, %15 ], [ %8, %9 ]
  %.1 = phi i64 [ %.0, %15 ], [ %12, %9 ]
  %19 = getelementptr inbounds i8, ptr %18, i64 24
  %20 = getelementptr inbounds i8, ptr %19, i64 %17
  tail call void @llvm.memcpy.p0.p0.i64(ptr nonnull align 1 %20, ptr align 1 %1, i64 %7, i1 false)
  %21 = load ptr, ptr %4, align 8
  %22 = getelementptr inbounds i8, ptr %21, i64 16
  store i64 %.1, ptr %22, align 8
  ret void
}